target datalayout = "e-m:e-p270:32:32-p271:32:32-p272:64:64-i64:64-i128:128-f80:128-n8:16:32:64-S128"
target triple = "x86_64-pc-linux-gnu"

%class.btSpinMutex = type { i32 }
%class.btDiscreteDynamicsWorld = type <{ %class.btDynamicsWorld, %class.btAlignedObjectArray.12, ptr, ptr, ptr, %class.btAlignedObjectArray.12, %class.btAlignedObjectArray.14, %class.btVector3, float, float, i8, i8, i8, i8, [4 x i8], %class.btAlignedObjectArray.16, i32, i8, [3 x i8], %class.btAlignedObjectArray.18, %class.btSpinMutex, [4 x i8] }>
%class.btDynamicsWorld = type { %class.btCollisionWorld.base, ptr, ptr, ptr, %struct.btContactSolverInfo }
%class.btCollisionWorld.base = type <{ ptr, %class.btAlignedObjectArray.10, ptr, %struct.btDispatcherInfo, ptr, ptr, i8 }>
%class.btAlignedObjectArray.10 = type <{ [4 x i8], i32, i32, [4 x i8], ptr, i8, [7 x i8] }>
%struct.btDispatcherInfo = type <{ float, i32, i32, float, i8, [7 x i8], ptr, i8, i8, i8, i8, float, i8, [3 x i8], float, i8, [7 x i8] }>
%struct.btContactSolverInfo = type { %struct.btContactSolverInfoData }
%struct.btContactSolverInfoData = type { float, float, float, float, float, i32, float, float, float, float, float, float, float, float, float, float, i32, float, float, float, float, float, i32, i32, i32, float, float, float, float, i8, i8, i32, i32 }
%class.btAlignedObjectArray.12 = type <{ [4 x i8], i32, i32, [4 x i8], ptr, i8, [7 x i8] }>
%class.btAlignedObjectArray.14 = type <{ [4 x i8], i32, i32, [4 x i8], ptr, i8, [7 x i8] }>
%class.btVector3 = type { [4 x float] }
%class.btAlignedObjectArray.16 = type <{ [4 x i8], i32, i32, [4 x i8], ptr, i8, [7 x i8] }>
%class.btAlignedObjectArray.18 = type <{ [4 x i8], i32, i32, [4 x i8], ptr, i8, [7 x i8] }>
%class.btDiscreteDynamicsWorldMt = type { %class.btDiscreteDynamicsWorld.base, ptr }
%class.btDiscreteDynamicsWorld.base = type <{ %class.btDynamicsWorld, %class.btAlignedObjectArray.12, ptr, ptr, ptr, %class.btAlignedObjectArray.12, %class.btAlignedObjectArray.14, %class.btVector3, float, float, i8, i8, i8, i8, [4 x i8], %class.btAlignedObjectArray.16, i32, i8, [3 x i8], %class.btAlignedObjectArray.18, %class.btSpinMutex }>
%class.btSimulationIslandManagerMt = type { %class.btSimulationIslandManager.base, [7 x i8], %class.btAlignedObjectArray.22, %class.btAlignedObjectArray.22, %class.btAlignedObjectArray.22, %class.btAlignedObjectArray.22, ptr, i32, i32, ptr }
%class.btSimulationIslandManager.base = type <{ ptr, %class.btUnionFind, %class.btAlignedObjectArray.18, %class.btAlignedObjectArray.10, i8 }>
%class.btUnionFind = type { %class.btAlignedObjectArray.20 }
%class.btAlignedObjectArray.20 = type <{ [4 x i8], i32, i32, [4 x i8], ptr, i8, [7 x i8] }>
%class.btAlignedObjectArray.22 = type <{ [4 x i8], i32, i32, [4 x i8], ptr, i8, [7 x i8] }>

; Function Attrs: mustprogress nounwind uwtable
define linkonce_odr dso_local void @_ZN27btSimulationIslandManagerMt25setMinimumSolverBatchSizeEi(ptr noundef nonnull align 8 dereferenceable(264) %0, i32 noundef %1) #1 comdat align 2 {
  %3 = alloca ptr, align 8
  %4 = alloca i32, align 4
  store ptr %0, ptr %3, align 8, !tbaa !100
  store i32 %1, ptr %4, align 4, !tbaa !9
  %5 = load ptr, ptr %3, align 8
  %6 = load i32, ptr %4, align 4, !tbaa !9
  %7 = getelementptr inbounds nuw %class.btSimulationIslandManagerMt, ptr %5, i32 0, i32 7
  store i32 %6, ptr %7, align 8, !tbaa !105
  ret void
}

; Function Attrs: mustprogress uwtable
define dso_local void @_ZN25btDiscreteDynamicsWorldMtC2EP12btDispatcherP21btBroadphaseInterfaceP24btConstraintSolverPoolMtP18btConstraintSolverP24btCollisionConfiguration(ptr noundef nonnull align 8 dereferenceable(520) %0, ptr noundef %1, ptr noundef %2, ptr noundef %3, ptr noundef %4, ptr noundef %5) unnamed_addr #2 align 2 personality ptr @__gxx_personality_v0 {
  %7 = alloca ptr, align 8
  %8 = alloca ptr, align 8
  %9 = alloca ptr, align 8
  %10 = alloca ptr, align 8
  %11 = alloca ptr, align 8
  %12 = alloca ptr, align 8
  %13 = alloca ptr, align 8
  %14 = alloca i32, align 4
  %15 = alloca ptr, align 8
  %16 = alloca ptr, align 8
  store ptr %0, ptr %7, align 8, !tbaa !68
  store ptr %1, ptr %8, align 8, !tbaa !65
  store ptr %2, ptr %9, align 8, !tbaa !70
  store ptr %3, ptr %10, align 8, !tbaa !12
  store ptr %4, ptr %11, align 8, !tbaa !31
  store ptr %5, ptr %12, align 8, !tbaa !72
  %17 = load ptr, ptr %7, align 8
  %18 = load ptr, ptr %8, align 8, !tbaa !65
  %19 = load ptr, ptr %9, align 8, !tbaa !70
  %20 = load ptr, ptr %10, align 8, !tbaa !12
  %21 = load ptr, ptr %12, align 8, !tbaa !72
  call void @_ZN23btDiscreteDynamicsWorldC2EP12btDispatcherP21btBroadphaseInterfaceP18btConstraintSolverP24btCollisionConfiguration(ptr noundef nonnull align 8 dereferenceable(508) %17, ptr noundef %18, ptr noundef %19, ptr noundef %20, ptr noundef %21)
  store ptr getelementptr inbounds inrange(-16, 384) ({ [50 x ptr] }, ptr @_ZTV25btDiscreteDynamicsWorldMt, i32 0, i32 0, i32 2), ptr %17, align 8, !tbaa !37
  %22 = getelementptr inbounds nuw %class.btDiscreteDynamicsWorld, ptr %17, i32 0, i32 10
  %23 = load i8, ptr %22, align 8, !tbaa !74, !range !97, !noundef !98
  %24 = trunc i8 %23 to i1
  br i1 %24, label %25, label %38

25:                                               ; preds = %6
  %26 = getelementptr inbounds nuw %class.btDiscreteDynamicsWorld, ptr %17, i32 0, i32 4
  %27 = load ptr, ptr %26, align 8, !tbaa !99
  %28 = load ptr, ptr %27, align 8, !tbaa !37
  %29 = getelementptr inbounds ptr, ptr %28, i64 0
  %30 = load ptr, ptr %29, align 8
  call void %30(ptr noundef nonnull align 8 dereferenceable(105) %27) #13
  %31 = getelementptr inbounds nuw %class.btDiscreteDynamicsWorld, ptr %17, i32 0, i32 4
  %32 = load ptr, ptr %31, align 8, !tbaa !99
  invoke void @_Z21btAlignedFreeInternalPv(ptr noundef %32)
          to label %33 unwind label %34

33:                                               ; preds = %25
  br label %38

34:                                               ; preds = %25
  %35 = landingpad { ptr, i32 }
          cleanup
  %36 = extractvalue { ptr, i32 } %35, 0
  store ptr %36, ptr %13, align 8
  %37 = extractvalue { ptr, i32 } %35, 1
  store i32 %37, ptr %14, align 4
  br label %61

38:                                               ; preds = %33, %6
  call void @llvm.lifetime.start.p0(i64 8, ptr %15) #13
  %39 = invoke noundef ptr @_Z22btAlignedAllocInternalmi(i64 noundef 264, i32 noundef 16)
          to label %40 unwind label %52

40:                                               ; preds = %38
  store ptr %39, ptr %15, align 8, !tbaa !52
  call void @llvm.lifetime.start.p0(i64 8, ptr %16) #13
  %41 = load ptr, ptr %15, align 8, !tbaa !52
  invoke void @_ZN27btSimulationIslandManagerMtC1Ev(ptr noundef nonnull align 8 dereferenceable(264) %41)
          to label %42 unwind label %56

42:                                               ; preds = %40
  store ptr %41, ptr %16, align 8, !tbaa !100
  %43 = load ptr, ptr %16, align 8, !tbaa !100
  %44 = getelementptr inbounds nuw %class.btDynamicsWorld, ptr %17, i32 0, i32 4
  %45 = getelementptr inbounds nuw %struct.btContactSolverInfoData, ptr %44, i32 0, i32 24
  %46 = load i32, ptr %45, align 8, !tbaa !102
  invoke void @_ZN27btSimulationIslandManagerMt25setMinimumSolverBatchSizeEi(ptr noundef nonnull align 8 dereferenceable(264) %43, i32 noundef %46)
          to label %47 unwind label %56

47:                                               ; preds = %42
  %48 = load ptr, ptr %16, align 8, !tbaa !100
  %49 = getelementptr inbounds nuw %class.btDiscreteDynamicsWorld, ptr %17, i32 0, i32 4
  store ptr %48, ptr %49, align 8, !tbaa !99
  call void @llvm.lifetime.end.p0(i64 8, ptr %16) #13
  call void @llvm.lifetime.end.p0(i64 8, ptr %15) #13
  %50 = load ptr, ptr %11, align 8, !tbaa !31
  %51 = getelementptr inbounds nuw %class.btDiscreteDynamicsWorldMt, ptr %17, i32 0, i32 1
  store ptr %50, ptr %51, align 8, !tbaa !103
  ret void

52:                                               ; preds = %38
  %53 = landingpad { ptr, i32 }
          cleanup
  %54 = extractvalue { ptr, i32 } %53, 0
  store ptr %54, ptr %13, align 8
  %55 = extractvalue { ptr, i32 } %53, 1
  store i32 %55, ptr %14, align 4
  br label %60

56:                                               ; preds = %42, %40
  %57 = landingpad { ptr, i32 }
          cleanup
  %58 = extractvalue { ptr, i32 } %57, 0
  store ptr %58, ptr %13, align 8
  %59 = extractvalue { ptr, i32 } %57, 1
  store i32 %59, ptr %14, align 4
  call void @llvm.lifetime.end.p0(i64 8, ptr %16) #13
  br label %60

60:                                               ; preds = %56, %52
  call void @llvm.lifetime.end.p0(i64 8, ptr %15) #13
  br label %61

61:                                               ; preds = %60, %34
  call void @_ZN23btDiscreteDynamicsWorldD2Ev(ptr noundef nonnull align 8 dereferenceable(508) %17) #13
  br label %62

62:                                               ; preds = %61
  %63 = load ptr, ptr %13, align 8
  %64 = load i32, ptr %14, align 4
  %65 = insertvalue { ptr, i32 } poison, ptr %63, 0
  %66 = insertvalue { ptr, i32 } %65, i32 %64, 1
  resume { ptr, i32 } %66
}