; Function Attrs: mustprogress uwtable
define dso_local void @_ZN25btDiscreteDynamicsWorldMtC2EP12btDispatcherP21btBroadphaseInterfaceP24btConstraintSolverPoolMtP18btConstraintSolverP24btCollisionConfiguration(ptr noundef nonnull align 8 dereferenceable(520) %0, ptr noundef %1, ptr noundef %2, ptr noundef %3, ptr noundef %4, ptr noundef %5) unnamed_addr #0 align 2 personality ptr @__gxx_personality_v0 {
  tail call void @_ZN23btDiscreteDynamicsWorldC2EP12btDispatcherP21btBroadphaseInterfaceP18btConstraintSolverP24btCollisionConfiguration(ptr noundef nonnull align 8 dereferenceable(508) %0, ptr noundef %1, ptr noundef %2, ptr noundef %3, ptr noundef %5)
  store ptr getelementptr inbounds nuw inrange(-16, 384) (i8, ptr @_ZTV25btDiscreteDynamicsWorldMt, i64 16), ptr %0, align 8, !tbaa !34
  %7 = getelementptr inbounds nuw i8, ptr %0, i64 424
  %8 = load i8, ptr %7, align 8, !tbaa !47, !range !27, !noundef !28
  %9 = trunc nuw i8 %8 to i1
  br i1 %9, label %10, label %18

10:                                               ; preds = %6
  %11 = getelementptr inbounds nuw i8, ptr %0, i64 328
  %12 = load ptr, ptr %11, align 8, !tbaa !76
  %13 = load ptr, ptr %12, align 8, !tbaa !34
  %14 = load ptr, ptr %13, align 8
  tail call void %14(ptr noundef nonnull align 8 dereferenceable(105) %12) #11
  %15 = load ptr, ptr %11, align 8, !tbaa !76
  invoke void @_Z21btAlignedFreeInternalPv(ptr noundef %15)
          to label %18 unwind label %16

16:                                               ; preds = %10
  %17 = landingpad { ptr, i32 }
          cleanup
  br label %31

18:                                               ; preds = %10, %6
  %19 = invoke noundef ptr @_Z22btAlignedAllocInternalmi(i64 noundef 264, i32 noundef 16)
          to label %20 unwind label %27

20:                                               ; preds = %18
  invoke void @_ZN27btSimulationIslandManagerMtC1Ev(ptr noundef nonnull align 8 dereferenceable(264) %19)
          to label %21 unwind label %29

21:                                               ; preds = %20
  %22 = getelementptr inbounds nuw i8, ptr %0, i64 248
  %23 = load i32, ptr %22, align 8, !tbaa !77
  %24 = getelementptr inbounds nuw i8, ptr %19, i64 248
  store i32 %23, ptr %24, align 8, !tbaa !78
  %25 = getelementptr inbounds nuw i8, ptr %0, i64 328
  store ptr %19, ptr %25, align 8, !tbaa !76
  %26 = getelementptr inbounds nuw i8, ptr %0, i64 512
  store ptr %4, ptr %26, align 8, !tbaa !89
  ret void

27:                                               ; preds = %18
  %28 = landingpad { ptr, i32 }
          cleanup
  br label %31

29:                                               ; preds = %20
  %30 = landingpad { ptr, i32 }
          cleanup
  br label %31

31:                                               ; preds = %27, %29, %16
  %.pn.pn = phi { ptr, i32 } [ %17, %16 ], [ %30, %29 ], [ %28, %27 ]
  tail call void @_ZN23btDiscreteDynamicsWorldD2Ev(ptr noundef nonnull align 8 dereferenceable(508) %0) #11
  resume { ptr, i32 } %.pn.pn
}